target datalayout = "e-m:e-p270:32:32-p271:32:32-p272:64:64-i64:64-i128:128-f80:128-n8:16:32:64-S128"
target triple = "x86_64-pc-linux-gnu"

%struct.cli_ctx_tag = type { ptr, ptr, ptr, ptr, ptr, ptr, ptr, i64, ptr, i32, i32, ptr, i32, i32, ptr, [16 x i8], ptr, ptr, ptr, ptr, ptr, ptr, %struct.timeval, i8, i8 }
%struct.timeval = type { i64, i64 }
%struct.cl_engine = type { i32, i32, i32, [2 x i32], i32, i32, i32, ptr, i32, i64, i32, i32, i64, i64, i32, i32, i32, i32, ptr, ptr, ptr, ptr, ptr, ptr, ptr, ptr, ptr, ptr, ptr, ptr, ptr, ptr, ptr, ptr, ptr, ptr, ptr, i64, ptr, %struct.crtmgr, ptr, ptr, ptr, ptr, ptr, ptr, ptr, ptr, ptr, ptr, ptr, ptr, ptr, ptr, ptr, ptr, ptr, %struct.cli_all_bc, [7 x ptr], [7 x i32], i32, i32, i32, i32, i64, i64, i64, i64, i64, ptr, ptr, ptr, ptr, ptr, ptr, ptr, ptr, ptr, i32, i32, i32, i64, i64, i64, ptr }
%struct.crtmgr = type { ptr, i32 }
%struct.cli_all_bc = type { ptr, i32, ptr, %struct.cli_environment, i32 }
%struct.cli_environment = type { i32, i32, i32, i32, i32, i32, i32, [65 x i8], [65 x i8], [65 x i8], [65 x i8], [65 x i8], [65 x i8], [65 x i8], i8, i8, i8, i8, i8, i8, i8, i8, i8 }

@.str.55 = private unnamed_addr constant [51 x i8] c"cli_unpackmacho: can't allocate memory for bc_ctx\0A\00", align 1
@.str.56 = private unnamed_addr constant [23 x i8] c"Running bytecode hook\0A\00", align 1
@.str.57 = private unnamed_addr constant [32 x i8] c"Finished running bytecode hook\0A\00", align 1
@.str.58 = private unnamed_addr constant [69 x i8] c"cli_unpackmacho: Unpacked and rebuilt Mach-O executable saved in %s\0A\00", align 1
@.str.59 = private unnamed_addr constant [42 x i8] c"***** Scanning rebuilt Mach-O file *****\0A\00", align 1

; Function Attrs: nounwind uwtable
define i32 @cli_unpackmacho(ptr noundef %0) #0 {
  %2 = alloca ptr, align 8
  %3 = alloca i32, align 4
  %4 = alloca ptr, align 8
  %5 = alloca i32, align 4
  %6 = alloca ptr, align 8
  store ptr %0, ptr %2, align 8
  store i32 0, ptr %3, align 4
  store ptr null, ptr %4, align 8
  store i32 -1, ptr %5, align 4
  %7 = call ptr @cli_bytecode_context_alloc()
  store ptr %7, ptr %6, align 8
  %8 = load ptr, ptr %6, align 8
  %9 = icmp ne ptr %8, null
  br i1 %9, label %11, label %10

10:                                               ; preds = %1
  call void (ptr, ...) @cli_errmsg(ptr noundef @.str.55)
  store i32 20, ptr %3, align 4
  br label %43

11:                                               ; preds = %1
  %12 = load ptr, ptr %6, align 8
  %13 = load ptr, ptr %2, align 8
  call void @cli_bytecode_context_setctx(ptr noundef %12, ptr noundef %13)
  call void (ptr, ...) @cli_dbgmsg(ptr noundef @.str.56)
  %14 = load ptr, ptr %2, align 8
  %15 = load ptr, ptr %2, align 8
  %16 = getelementptr inbounds %struct.cli_ctx_tag, ptr %15, i32 0, i32 6
  %17 = load ptr, ptr %16, align 8
  %18 = load ptr, ptr %6, align 8
  %19 = load ptr, ptr %2, align 8
  %20 = getelementptr inbounds %struct.cli_ctx_tag, ptr %19, i32 0, i32 14
  %21 = load ptr, ptr %20, align 8
  %22 = call i32 @cli_bytecode_runhook(ptr noundef %14, ptr noundef %17, ptr noundef %18, i32 noundef 262, ptr noundef %21)
  store i32 %22, ptr %3, align 4
  call void (ptr, ...) @cli_dbgmsg(ptr noundef @.str.57)
  %23 = load i32, ptr %3, align 4
  %24 = icmp eq i32 0, %23
  br i1 %24, label %25, label %42

25:                                               ; preds = %11
  %26 = load ptr, ptr %6, align 8
  %27 = call i32 @cli_bytecode_context_getresult_file(ptr noundef %26, ptr noundef %4)
  store i32 %27, ptr %5, align 4
  %28 = load i32, ptr %5, align 4
  %29 = icmp ne i32 %28, -1
  br i1 %29, label %30, label %41

30:                                               ; preds = %25
  %31 = load ptr, ptr %4, align 8
  %32 = icmp ne ptr %31, null
  br i1 %32, label %33, label %41

33:                                               ; preds = %30
  %34 = load ptr, ptr %4, align 8
  call void (ptr, ...) @cli_dbgmsg(ptr noundef @.str.58, ptr noundef %34)
  %35 = load i32, ptr %5, align 4
  %36 = call i64 @lseek(i32 noundef %35, i64 noundef 0, i32 noundef 0) #4
  call void (ptr, ...) @cli_dbgmsg(ptr noundef @.str.59)
  %37 = load i32, ptr %5, align 4
  %38 = load ptr, ptr %4, align 8
  %39 = load ptr, ptr %2, align 8
  %40 = call i32 @cli_magic_scan_desc(i32 noundef %37, ptr noundef %38, ptr noundef %39, ptr noundef null, i32 noundef 0)
  store i32 %40, ptr %3, align 4
  br label %41

41:                                               ; preds = %33, %30, %25
  br label %42

42:                                               ; preds = %41, %11
  br label %43

43:                                               ; preds = %42, %10
  %44 = load i32, ptr %5, align 4
  %45 = icmp ne i32 -1, %44
  br i1 %45, label %46, label %49

46:                                               ; preds = %43
  %47 = load i32, ptr %5, align 4
  %48 = call i32 @close(i32 noundef %47)
  br label %49

49:                                               ; preds = %46, %43
  %50 = load ptr, ptr %4, align 8
  %51 = icmp ne ptr null, %50
  br i1 %51, label %52, label %64

52:                                               ; preds = %49
  %53 = load ptr, ptr %2, align 8
  %54 = getelementptr inbounds %struct.cli_ctx_tag, ptr %53, i32 0, i32 6
  %55 = load ptr, ptr %54, align 8
  %56 = getelementptr inbounds %struct.cl_engine, ptr %55, i32 0, i32 8
  %57 = load i32, ptr %56, align 8
  %58 = icmp ne i32 %57, 0
  br i1 %58, label %62, label %59

59:                                               ; preds = %52
  %60 = load ptr, ptr %4, align 8
  %61 = call i32 @cli_unlink(ptr noundef %60)
  br label %62

62:                                               ; preds = %59, %52
  %63 = load ptr, ptr %4, align 8
  call void @free(ptr noundef %63) #4
  br label %64

64:                                               ; preds = %62, %49
  %65 = load ptr, ptr %6, align 8
  %66 = icmp ne ptr null, %65
  br i1 %66, label %67, label %69

67:                                               ; preds = %64
  %68 = load ptr, ptr %6, align 8
  call void @cli_bytecode_context_destroy(ptr noundef %68)
  br label %69

69:                                               ; preds = %67, %64
  %70 = load i32, ptr %3, align 4
  ret i32 %70
}